target datalayout = "e-m:e-p270:32:32-p271:32:32-p272:64:64-i64:64-i128:128-f80:128-n8:16:32:64-S128"
target triple = "x86_64-pc-linux-gnu"

%struct.ec_group_st = type { ptr, ptr, %struct.bignum_st, %struct.bignum_st, i32, ptr, %struct.bignum_st, %struct.bignum_st, %struct.bignum_st, i32, ptr, %struct.bignum_st }
%struct.bignum_st = type { ptr, i32, i32, i32, i32 }
%struct.ec_method_st = type { ptr, ptr, ptr, ptr, ptr, ptr, ptr, ptr, ptr, ptr, ptr }
%struct.ec_point_st = type { ptr, %struct.bignum_st, %struct.bignum_st, %struct.bignum_st }

; Function Attrs: nounwind uwtable
define hidden i32 @ec_GFp_simple_is_on_curve(ptr noundef %0, ptr noundef %1, ptr noundef %2) #0 {
  %4 = alloca i32, align 4
  %5 = alloca ptr, align 8
  %6 = alloca ptr, align 8
  %7 = alloca ptr, align 8
  %8 = alloca ptr, align 8
  %9 = alloca ptr, align 8
  %10 = alloca ptr, align 8
  %11 = alloca ptr, align 8
  %12 = alloca ptr, align 8
  %13 = alloca ptr, align 8
  %14 = alloca ptr, align 8
  %15 = alloca ptr, align 8
  %16 = alloca i32, align 4
  %17 = alloca i32, align 4
  store ptr %0, ptr %5, align 8, !tbaa !6
  store ptr %1, ptr %6, align 8, !tbaa !28
  store ptr %2, ptr %7, align 8, !tbaa !21
  call void @llvm.lifetime.start.p0(i64 8, ptr %8) #6
  call void @llvm.lifetime.start.p0(i64 8, ptr %9) #6
  call void @llvm.lifetime.start.p0(i64 8, ptr %10) #6
  call void @llvm.lifetime.start.p0(i64 8, ptr %11) #6
  store ptr null, ptr %11, align 8, !tbaa !21
  call void @llvm.lifetime.start.p0(i64 8, ptr %12) #6
  call void @llvm.lifetime.start.p0(i64 8, ptr %13) #6
  call void @llvm.lifetime.start.p0(i64 8, ptr %14) #6
  call void @llvm.lifetime.start.p0(i64 8, ptr %15) #6
  call void @llvm.lifetime.start.p0(i64 4, ptr %16) #6
  store i32 0, ptr %16, align 4, !tbaa !23
  %18 = load ptr, ptr %5, align 8, !tbaa !6
  %19 = load ptr, ptr %6, align 8, !tbaa !28
  %20 = call i32 @EC_POINT_is_at_infinity(ptr noundef %18, ptr noundef %19)
  %21 = icmp ne i32 %20, 0
  br i1 %21, label %22, label %23

22:                                               ; preds = %3
  store i32 1, ptr %4, align 4
  store i32 1, ptr %17, align 4
  br label %235

23:                                               ; preds = %3
  %24 = load ptr, ptr %5, align 8, !tbaa !6
  %25 = getelementptr inbounds nuw %struct.ec_group_st, ptr %24, i32 0, i32 0
  %26 = load ptr, ptr %25, align 8, !tbaa !24
  %27 = getelementptr inbounds nuw %struct.ec_method_st, ptr %26, i32 0, i32 7
  %28 = load ptr, ptr %27, align 8, !tbaa !29
  store ptr %28, ptr %8, align 8, !tbaa !30
  %29 = load ptr, ptr %5, align 8, !tbaa !6
  %30 = getelementptr inbounds nuw %struct.ec_group_st, ptr %29, i32 0, i32 0
  %31 = load ptr, ptr %30, align 8, !tbaa !24
  %32 = getelementptr inbounds nuw %struct.ec_method_st, ptr %31, i32 0, i32 8
  %33 = load ptr, ptr %32, align 8, !tbaa !31
  store ptr %33, ptr %9, align 8, !tbaa !30
  %34 = load ptr, ptr %5, align 8, !tbaa !6
  %35 = getelementptr inbounds nuw %struct.ec_group_st, ptr %34, i32 0, i32 6
  store ptr %35, ptr %10, align 8, !tbaa !19
  %36 = load ptr, ptr %7, align 8, !tbaa !21
  %37 = icmp eq ptr %36, null
  br i1 %37, label %38, label %44

38:                                               ; preds = %23
  %39 = call ptr @BN_CTX_new()
  store ptr %39, ptr %11, align 8, !tbaa !21
  store ptr %39, ptr %7, align 8, !tbaa !21
  %40 = load ptr, ptr %7, align 8, !tbaa !21
  %41 = icmp eq ptr %40, null
  br i1 %41, label %42, label %43

42:                                               ; preds = %38
  store i32 0, ptr %4, align 4
  store i32 1, ptr %17, align 4
  br label %235

43:                                               ; preds = %38
  br label %44

44:                                               ; preds = %43, %23
  %45 = load ptr, ptr %7, align 8, !tbaa !21
  call void @BN_CTX_start(ptr noundef %45)
  %46 = load ptr, ptr %7, align 8, !tbaa !21
  %47 = call ptr @BN_CTX_get(ptr noundef %46)
  store ptr %47, ptr %12, align 8, !tbaa !19
  %48 = load ptr, ptr %7, align 8, !tbaa !21
  %49 = call ptr @BN_CTX_get(ptr noundef %48)
  store ptr %49, ptr %13, align 8, !tbaa !19
  %50 = load ptr, ptr %7, align 8, !tbaa !21
  %51 = call ptr @BN_CTX_get(ptr noundef %50)
  store ptr %51, ptr %14, align 8, !tbaa !19
  %52 = load ptr, ptr %7, align 8, !tbaa !21
  %53 = call ptr @BN_CTX_get(ptr noundef %52)
  store ptr %53, ptr %15, align 8, !tbaa !19
  %54 = load ptr, ptr %15, align 8, !tbaa !19
  %55 = icmp eq ptr %54, null
  br i1 %55, label %56, label %57

56:                                               ; preds = %44
  br label %231

57:                                               ; preds = %44
  %58 = load ptr, ptr %9, align 8, !tbaa !30
  %59 = load ptr, ptr %5, align 8, !tbaa !6
  %60 = load ptr, ptr %12, align 8, !tbaa !19
  %61 = load ptr, ptr %6, align 8, !tbaa !28
  %62 = getelementptr inbounds nuw %struct.ec_point_st, ptr %61, i32 0, i32 1
  %63 = load ptr, ptr %7, align 8, !tbaa !21
  %64 = call i32 %58(ptr noundef %59, ptr noundef %60, ptr noundef %62, ptr noundef %63)
  %65 = icmp ne i32 %64, 0
  br i1 %65, label %67, label %66

66:                                               ; preds = %57
  br label %231

67:                                               ; preds = %57
  %68 = load ptr, ptr %6, align 8, !tbaa !28
  %69 = getelementptr inbounds nuw %struct.ec_point_st, ptr %68, i32 0, i32 3
  %70 = load ptr, ptr %5, align 8, !tbaa !6
  %71 = getelementptr inbounds nuw %struct.ec_group_st, ptr %70, i32 0, i32 11
  %72 = call i32 @BN_cmp(ptr noundef %69, ptr noundef %71)
  %73 = icmp ne i32 %72, 0
  br i1 %73, label %74, label %186

74:                                               ; preds = %67
  %75 = load ptr, ptr %9, align 8, !tbaa !30
  %76 = load ptr, ptr %5, align 8, !tbaa !6
  %77 = load ptr, ptr %13, align 8, !tbaa !19
  %78 = load ptr, ptr %6, align 8, !tbaa !28
  %79 = getelementptr inbounds nuw %struct.ec_point_st, ptr %78, i32 0, i32 3
  %80 = load ptr, ptr %7, align 8, !tbaa !21
  %81 = call i32 %75(ptr noundef %76, ptr noundef %77, ptr noundef %79, ptr noundef %80)
  %82 = icmp ne i32 %81, 0
  br i1 %82, label %83, label %100

83:                                               ; preds = %74
  %84 = load ptr, ptr %9, align 8, !tbaa !30
  %85 = load ptr, ptr %5, align 8, !tbaa !6
  %86 = load ptr, ptr %14, align 8, !tbaa !19
  %87 = load ptr, ptr %13, align 8, !tbaa !19
  %88 = load ptr, ptr %7, align 8, !tbaa !21
  %89 = call i32 %84(ptr noundef %85, ptr noundef %86, ptr noundef %87, ptr noundef %88)
  %90 = icmp ne i32 %89, 0
  br i1 %90, label %91, label %100

91:                                               ; preds = %83
  %92 = load ptr, ptr %8, align 8, !tbaa !30
  %93 = load ptr, ptr %5, align 8, !tbaa !6
  %94 = load ptr, ptr %15, align 8, !tbaa !19
  %95 = load ptr, ptr %14, align 8, !tbaa !19
  %96 = load ptr, ptr %13, align 8, !tbaa !19
  %97 = load ptr, ptr %7, align 8, !tbaa !21
  %98 = call i32 %92(ptr noundef %93, ptr noundef %94, ptr noundef %95, ptr noundef %96, ptr noundef %97)
  %99 = icmp ne i32 %98, 0
  br i1 %99, label %101, label %100

100:                                              ; preds = %91, %83, %74
  br label %231

101:                                              ; preds = %91
  %102 = load ptr, ptr %5, align 8, !tbaa !6
  %103 = getelementptr inbounds nuw %struct.ec_group_st, ptr %102, i32 0, i32 9
  %104 = load i32, ptr %103, align 8, !tbaa !11
  %105 = icmp ne i32 %104, 0
  br i1 %105, label %106, label %138

106:                                              ; preds = %101
  %107 = load ptr, ptr %13, align 8, !tbaa !19
  %108 = load ptr, ptr %14, align 8, !tbaa !19
  %109 = load ptr, ptr %10, align 8, !tbaa !19
  %110 = call i32 @BN_mod_lshift1_quick(ptr noundef %107, ptr noundef %108, ptr noundef %109)
  %111 = icmp ne i32 %110, 0
  br i1 %111, label %112, label %136

112:                                              ; preds = %106
  %113 = load ptr, ptr %13, align 8, !tbaa !19
  %114 = load ptr, ptr %13, align 8, !tbaa !19
  %115 = load ptr, ptr %14, align 8, !tbaa !19
  %116 = load ptr, ptr %10, align 8, !tbaa !19
  %117 = call i32 @BN_mod_add_quick(ptr noundef %113, ptr noundef %114, ptr noundef %115, ptr noundef %116)
  %118 = icmp ne i32 %117, 0
  br i1 %118, label %119, label %136

119:                                              ; preds = %112
  %120 = load ptr, ptr %12, align 8, !tbaa !19
  %121 = load ptr, ptr %12, align 8, !tbaa !19
  %122 = load ptr, ptr %13, align 8, !tbaa !19
  %123 = load ptr, ptr %10, align 8, !tbaa !19
  %124 = call i32 @BN_mod_sub_quick(ptr noundef %120, ptr noundef %121, ptr noundef %122, ptr noundef %123)
  %125 = icmp ne i32 %124, 0
  br i1 %125, label %126, label %136

126:                                              ; preds = %119
  %127 = load ptr, ptr %8, align 8, !tbaa !30
  %128 = load ptr, ptr %5, align 8, !tbaa !6
  %129 = load ptr, ptr %12, align 8, !tbaa !19
  %130 = load ptr, ptr %12, align 8, !tbaa !19
  %131 = load ptr, ptr %6, align 8, !tbaa !28
  %132 = getelementptr inbounds nuw %struct.ec_point_st, ptr %131, i32 0, i32 1
  %133 = load ptr, ptr %7, align 8, !tbaa !21
  %134 = call i32 %127(ptr noundef %128, ptr noundef %129, ptr noundef %130, ptr noundef %132, ptr noundef %133)
  %135 = icmp ne i32 %134, 0
  br i1 %135, label %137, label %136

136:                                              ; preds = %126, %119, %112, %106
  br label %231

137:                                              ; preds = %126
  br label %167

138:                                              ; preds = %101
  %139 = load ptr, ptr %8, align 8, !tbaa !30
  %140 = load ptr, ptr %5, align 8, !tbaa !6
  %141 = load ptr, ptr %13, align 8, !tbaa !19
  %142 = load ptr, ptr %14, align 8, !tbaa !19
  %143 = load ptr, ptr %5, align 8, !tbaa !6
  %144 = getelementptr inbounds nuw %struct.ec_group_st, ptr %143, i32 0, i32 7
  %145 = load ptr, ptr %7, align 8, !tbaa !21
  %146 = call i32 %139(ptr noundef %140, ptr noundef %141, ptr noundef %142, ptr noundef %144, ptr noundef %145)
  %147 = icmp ne i32 %146, 0
  br i1 %147, label %148, label %165

148:                                              ; preds = %138
  %149 = load ptr, ptr %12, align 8, !tbaa !19
  %150 = load ptr, ptr %12, align 8, !tbaa !19
  %151 = load ptr, ptr %13, align 8, !tbaa !19
  %152 = load ptr, ptr %10, align 8, !tbaa !19
  %153 = call i32 @BN_mod_add_quick(ptr noundef %149, ptr noundef %150, ptr noundef %151, ptr noundef %152)
  %154 = icmp ne i32 %153, 0
  br i1 %154, label %155, label %165

155:                                              ; preds = %148
  %156 = load ptr, ptr %8, align 8, !tbaa !30
  %157 = load ptr, ptr %5, align 8, !tbaa !6
  %158 = load ptr, ptr %12, align 8, !tbaa !19
  %159 = load ptr, ptr %12, align 8, !tbaa !19
  %160 = load ptr, ptr %6, align 8, !tbaa !28
  %161 = getelementptr inbounds nuw %struct.ec_point_st, ptr %160, i32 0, i32 1
  %162 = load ptr, ptr %7, align 8, !tbaa !21
  %163 = call i32 %156(ptr noundef %157, ptr noundef %158, ptr noundef %159, ptr noundef %161, ptr noundef %162)
  %164 = icmp ne i32 %163, 0
  br i1 %164, label %166, label %165

165:                                              ; preds = %155, %148, %138
  br label %231

166:                                              ; preds = %155
  br label %167

167:                                              ; preds = %166, %137
  %168 = load ptr, ptr %8, align 8, !tbaa !30
  %169 = load ptr, ptr %5, align 8, !tbaa !6
  %170 = load ptr, ptr %13, align 8, !tbaa !19
  %171 = load ptr, ptr %5, align 8, !tbaa !6
  %172 = getelementptr inbounds nuw %struct.ec_group_st, ptr %171, i32 0, i32 8
  %173 = load ptr, ptr %15, align 8, !tbaa !19
  %174 = load ptr, ptr %7, align 8, !tbaa !21
  %175 = call i32 %168(ptr noundef %169, ptr noundef %170, ptr noundef %172, ptr noundef %173, ptr noundef %174)
  %176 = icmp ne i32 %175, 0
  br i1 %176, label %177, label %184

177:                                              ; preds = %167
  %178 = load ptr, ptr %12, align 8, !tbaa !19
  %179 = load ptr, ptr %12, align 8, !tbaa !19
  %180 = load ptr, ptr %13, align 8, !tbaa !19
  %181 = load ptr, ptr %10, align 8, !tbaa !19
  %182 = call i32 @BN_mod_add_quick(ptr noundef %178, ptr noundef %179, ptr noundef %180, ptr noundef %181)
  %183 = icmp ne i32 %182, 0
  br i1 %183, label %185, label %184

184:                                              ; preds = %177, %167
  br label %231

185:                                              ; preds = %177
  br label %215

186:                                              ; preds = %67
  %187 = load ptr, ptr %12, align 8, !tbaa !19
  %188 = load ptr, ptr %12, align 8, !tbaa !19
  %189 = load ptr, ptr %5, align 8, !tbaa !6
  %190 = getelementptr inbounds nuw %struct.ec_group_st, ptr %189, i32 0, i32 7
  %191 = load ptr, ptr %10, align 8, !tbaa !19
  %192 = call i32 @BN_mod_add_quick(ptr noundef %187, ptr noundef %188, ptr noundef %190, ptr noundef %191)
  %193 = icmp ne i32 %192, 0
  br i1 %193, label %194, label %204

194:                                              ; preds = %186
  %195 = load ptr, ptr %8, align 8, !tbaa !30
  %196 = load ptr, ptr %5, align 8, !tbaa !6
  %197 = load ptr, ptr %12, align 8, !tbaa !19
  %198 = load ptr, ptr %12, align 8, !tbaa !19
  %199 = load ptr, ptr %6, align 8, !tbaa !28
  %200 = getelementptr inbounds nuw %struct.ec_point_st, ptr %199, i32 0, i32 1
  %201 = load ptr, ptr %7, align 8, !tbaa !21
  %202 = call i32 %195(ptr noundef %196, ptr noundef %197, ptr noundef %198, ptr noundef %200, ptr noundef %201)
  %203 = icmp ne i32 %202, 0
  br i1 %203, label %205, label %204

204:                                              ; preds = %194, %186
  br label %231

205:                                              ; preds = %194
  %206 = load ptr, ptr %12, align 8, !tbaa !19
  %207 = load ptr, ptr %12, align 8, !tbaa !19
  %208 = load ptr, ptr %5, align 8, !tbaa !6
  %209 = getelementptr inbounds nuw %struct.ec_group_st, ptr %208, i32 0, i32 8
  %210 = load ptr, ptr %10, align 8, !tbaa !19
  %211 = call i32 @BN_mod_add_quick(ptr noundef %206, ptr noundef %207, ptr noundef %209, ptr noundef %210)
  %212 = icmp ne i32 %211, 0
  br i1 %212, label %214, label %213

213:                                              ; preds = %205
  br label %231

214:                                              ; preds = %205
  br label %215

215:                                              ; preds = %214, %185
  %216 = load ptr, ptr %9, align 8, !tbaa !30
  %217 = load ptr, ptr %5, align 8, !tbaa !6
  %218 = load ptr, ptr %13, align 8, !tbaa !19
  %219 = load ptr, ptr %6, align 8, !tbaa !28
  %220 = getelementptr inbounds nuw %struct.ec_point_st, ptr %219, i32 0, i32 2
  %221 = load ptr, ptr %7, align 8, !tbaa !21
  %222 = call i32 %216(ptr noundef %217, ptr noundef %218, ptr noundef %220, ptr noundef %221)
  %223 = icmp ne i32 %222, 0
  br i1 %223, label %225, label %224

224:                                              ; preds = %215
  br label %231

225:                                              ; preds = %215
  %226 = load ptr, ptr %13, align 8, !tbaa !19
  %227 = load ptr, ptr %12, align 8, !tbaa !19
  %228 = call i32 @BN_ucmp(ptr noundef %226, ptr noundef %227)
  %229 = icmp eq i32 0, %228
  %230 = zext i1 %229 to i32
  store i32 %230, ptr %16, align 4, !tbaa !23
  br label %231

231:                                              ; preds = %225, %224, %213, %204, %184, %165, %136, %100, %66, %56
  %232 = load ptr, ptr %7, align 8, !tbaa !21
  call void @BN_CTX_end(ptr noundef %232)
  %233 = load ptr, ptr %11, align 8, !tbaa !21
  call void @BN_CTX_free(ptr noundef %233)
  %234 = load i32, ptr %16, align 4, !tbaa !23
  store i32 %234, ptr %4, align 4
  store i32 1, ptr %17, align 4
  br label %235

235:                                              ; preds = %231, %42, %22
  call void @llvm.lifetime.end.p0(i64 4, ptr %16) #6
  call void @llvm.lifetime.end.p0(i64 8, ptr %15) #6
  call void @llvm.lifetime.end.p0(i64 8, ptr %14) #6
  call void @llvm.lifetime.end.p0(i64 8, ptr %13) #6
  call void @llvm.lifetime.end.p0(i64 8, ptr %12) #6
  call void @llvm.lifetime.end.p0(i64 8, ptr %11) #6
  call void @llvm.lifetime.end.p0(i64 8, ptr %10) #6
  call void @llvm.lifetime.end.p0(i64 8, ptr %9) #6
  call void @llvm.lifetime.end.p0(i64 8, ptr %8) #6
  %236 = load i32, ptr %4, align 4
  ret i32 %236
}