; Function Attrs: nounwind uwtable
define hidden range(i32 0, 2) i32 @ec_GFp_simple_is_on_curve(ptr noundef %0, ptr noundef %1, ptr noundef %2) local_unnamed_addr #0 {
  %4 = tail call i32 @EC_POINT_is_at_infinity(ptr noundef %0, ptr noundef %1) #5
  %.not = icmp eq i32 %4, 0
  br i1 %.not, label %5, label %74

5:                                                ; preds = %3
  %6 = load ptr, ptr %0, align 8, !tbaa !17
  %7 = getelementptr inbounds nuw i8, ptr %6, i64 56
  %8 = load ptr, ptr %7, align 8, !tbaa !21
  %9 = getelementptr inbounds nuw i8, ptr %6, i64 64
  %10 = load ptr, ptr %9, align 8, !tbaa !22
  %11 = getelementptr inbounds nuw i8, ptr %0, i64 80
  %12 = icmp eq ptr %2, null
  br i1 %12, label %13, label %16

13:                                               ; preds = %5
  %14 = tail call ptr @BN_CTX_new() #5
  %15 = icmp eq ptr %14, null
  br i1 %15, label %74, label %16

16:                                               ; preds = %13, %5
  %.0106 = phi ptr [ %14, %13 ], [ null, %5 ]
  %.0105 = phi ptr [ %14, %13 ], [ %2, %5 ]
  tail call void @BN_CTX_start(ptr noundef nonnull %.0105) #5
  %17 = tail call ptr @BN_CTX_get(ptr noundef nonnull %.0105) #5
  %18 = tail call ptr @BN_CTX_get(ptr noundef nonnull %.0105) #5
  %19 = tail call ptr @BN_CTX_get(ptr noundef nonnull %.0105) #5
  %20 = tail call ptr @BN_CTX_get(ptr noundef nonnull %.0105) #5
  %21 = icmp eq ptr %20, null
  br i1 %21, label %73, label %22

22:                                               ; preds = %16
  %23 = getelementptr inbounds nuw i8, ptr %1, i64 8
  %24 = tail call i32 %10(ptr noundef nonnull %0, ptr noundef %17, ptr noundef nonnull %23, ptr noundef nonnull %.0105) #5
  %.not110 = icmp eq i32 %24, 0
  br i1 %.not110, label %73, label %25

25:                                               ; preds = %22
  %26 = getelementptr inbounds nuw i8, ptr %1, i64 56
  %27 = getelementptr inbounds nuw i8, ptr %0, i64 168
  %28 = tail call i32 @BN_cmp(ptr noundef nonnull %26, ptr noundef nonnull %27) #5
  %.not111 = icmp eq i32 %28, 0
  br i1 %.not111, label %58, label %29

29:                                               ; preds = %25
  %30 = tail call i32 %10(ptr noundef nonnull %0, ptr noundef %18, ptr noundef nonnull %26, ptr noundef nonnull %.0105) #5
  %.not115 = icmp eq i32 %30, 0
  br i1 %.not115, label %73, label %31

31:                                               ; preds = %29
  %32 = tail call i32 %10(ptr noundef nonnull %0, ptr noundef %19, ptr noundef %18, ptr noundef nonnull %.0105) #5
  %.not116 = icmp eq i32 %32, 0
  br i1 %.not116, label %73, label %33

33:                                               ; preds = %31
  %34 = tail call i32 %8(ptr noundef nonnull %0, ptr noundef nonnull %20, ptr noundef %19, ptr noundef %18, ptr noundef nonnull %.0105) #5
  %.not117 = icmp eq i32 %34, 0
  br i1 %.not117, label %73, label %35

35:                                               ; preds = %33
  %36 = getelementptr inbounds nuw i8, ptr %0, i64 152
  %37 = load i32, ptr %36, align 8, !tbaa !6
  %.not118 = icmp eq i32 %37, 0
  br i1 %.not118, label %46, label %38

38:                                               ; preds = %35
  %39 = tail call i32 @BN_mod_lshift1_quick(ptr noundef %18, ptr noundef %19, ptr noundef nonnull %11) #5
  %.not122 = icmp eq i32 %39, 0
  br i1 %.not122, label %73, label %40

40:                                               ; preds = %38
  %41 = tail call i32 @BN_mod_add_quick(ptr noundef %18, ptr noundef %18, ptr noundef %19, ptr noundef nonnull %11) #5
  %.not123 = icmp eq i32 %41, 0
  br i1 %.not123, label %73, label %42

42:                                               ; preds = %40
  %43 = tail call i32 @BN_mod_sub_quick(ptr noundef %17, ptr noundef %17, ptr noundef %18, ptr noundef nonnull %11) #5
  %.not124 = icmp eq i32 %43, 0
  br i1 %.not124, label %73, label %44

44:                                               ; preds = %42
  %45 = tail call i32 %8(ptr noundef nonnull %0, ptr noundef %17, ptr noundef %17, ptr noundef nonnull %23, ptr noundef nonnull %.0105) #5
  %.not125 = icmp eq i32 %45, 0
  br i1 %.not125, label %73, label %53

46:                                               ; preds = %35
  %47 = getelementptr inbounds nuw i8, ptr %0, i64 104
  %48 = tail call i32 %8(ptr noundef nonnull %0, ptr noundef %18, ptr noundef %19, ptr noundef nonnull %47, ptr noundef nonnull %.0105) #5
  %.not119 = icmp eq i32 %48, 0
  br i1 %.not119, label %73, label %49

49:                                               ; preds = %46
  %50 = tail call i32 @BN_mod_add_quick(ptr noundef %17, ptr noundef %17, ptr noundef %18, ptr noundef nonnull %11) #5
  %.not120 = icmp eq i32 %50, 0
  br i1 %.not120, label %73, label %51

51:                                               ; preds = %49
  %52 = tail call i32 %8(ptr noundef nonnull %0, ptr noundef %17, ptr noundef %17, ptr noundef nonnull %23, ptr noundef nonnull %.0105) #5
  %.not121 = icmp eq i32 %52, 0
  br i1 %.not121, label %73, label %53

53:                                               ; preds = %51, %44
  %54 = getelementptr inbounds nuw i8, ptr %0, i64 128
  %55 = tail call i32 %8(ptr noundef nonnull %0, ptr noundef %18, ptr noundef nonnull %54, ptr noundef nonnull %20, ptr noundef nonnull %.0105) #5
  %.not126 = icmp eq i32 %55, 0
  br i1 %.not126, label %73, label %56

56:                                               ; preds = %53
  %57 = tail call i32 @BN_mod_add_quick(ptr noundef %17, ptr noundef %17, ptr noundef %18, ptr noundef nonnull %11) #5
  %.not127 = icmp eq i32 %57, 0
  br i1 %.not127, label %73, label %66

58:                                               ; preds = %25
  %59 = getelementptr inbounds nuw i8, ptr %0, i64 104
  %60 = tail call i32 @BN_mod_add_quick(ptr noundef %17, ptr noundef %17, ptr noundef nonnull %59, ptr noundef nonnull %11) #5
  %.not112 = icmp eq i32 %60, 0
  br i1 %.not112, label %73, label %61

61:                                               ; preds = %58
  %62 = tail call i32 %8(ptr noundef nonnull %0, ptr noundef %17, ptr noundef %17, ptr noundef nonnull %23, ptr noundef nonnull %.0105) #5
  %.not113 = icmp eq i32 %62, 0
  br i1 %.not113, label %73, label %63

63:                                               ; preds = %61
  %64 = getelementptr inbounds nuw i8, ptr %0, i64 128
  %65 = tail call i32 @BN_mod_add_quick(ptr noundef %17, ptr noundef %17, ptr noundef nonnull %64, ptr noundef nonnull %11) #5
  %.not114 = icmp eq i32 %65, 0
  br i1 %.not114, label %73, label %66

66:                                               ; preds = %63, %56
  %67 = getelementptr inbounds nuw i8, ptr %1, i64 32
  %68 = tail call i32 %10(ptr noundef nonnull %0, ptr noundef %18, ptr noundef nonnull %67, ptr noundef nonnull %.0105) #5
  %.not128 = icmp eq i32 %68, 0
  br i1 %.not128, label %73, label %69

69:                                               ; preds = %66
  %70 = tail call i32 @BN_ucmp(ptr noundef %18, ptr noundef %17) #5
  %71 = icmp eq i32 %70, 0
  %72 = zext i1 %71 to i32
  br label %73

73:                                               ; preds = %66, %63, %58, %61, %53, %56, %46, %49, %51, %38, %40, %42, %44, %29, %31, %33, %22, %16, %69
  %.0 = phi i32 [ 0, %16 ], [ %72, %69 ], [ 0, %66 ], [ 0, %56 ], [ 0, %53 ], [ 0, %44 ], [ 0, %42 ], [ 0, %40 ], [ 0, %38 ], [ 0, %51 ], [ 0, %49 ], [ 0, %46 ], [ 0, %33 ], [ 0, %31 ], [ 0, %29 ], [ 0, %63 ], [ 0, %61 ], [ 0, %58 ], [ 0, %22 ]
  tail call void @BN_CTX_end(ptr noundef nonnull %.0105) #5
  tail call void @BN_CTX_free(ptr noundef %.0106) #5
  br label %74

74:                                               ; preds = %13, %3, %73
  %.0104 = phi i32 [ %.0, %73 ], [ 1, %3 ], [ 0, %13 ]
  ret i32 %.0104
}